target datalayout = "e-m:e-p270:32:32-p271:32:32-p272:64:64-i64:64-i128:128-f80:128-n8:16:32:64-S128"
target triple = "x86_64-pc-linux-gnu"

%struct.VVCFrameContext = type { ptr, [17 x %struct.VVCFrame], ptr, ptr, %struct.VVCFrameParamSets, ptr, i32, i32, ptr, %struct.VVCDSPContext, %struct.VideoDSPContext, ptr, i64, ptr, ptr, ptr, ptr, %struct.anon }
%struct.VVCFrame = type { ptr, ptr, ptr, ptr, ptr, ptr, i32, i32, i32, %struct.VVCWindow, i32, i32, ptr, ptr, i16, i8, ptr }
%struct.VVCWindow = type { i16, i16, i16, i16 }
%struct.VVCFrameParamSets = type { ptr, ptr, %struct.VVCPH, [8 x ptr], %struct.VVCLMCS, ptr }
%struct.VVCPH = type { ptr, ptr, i32, i32, i8, [3 x i16], i8, [3 x i16], %struct.PredWeightTable }
%struct.PredWeightTable = type { [2 x i8], [2 x i8], [2 x [2 x [15 x i8]]], [2 x [3 x [15 x i16]]], [2 x [3 x [15 x i16]]] }
%struct.VVCLMCS = type { i8, i8, %union.anon, %union.anon, [17 x i16], [16 x i16] }
%union.anon = type { [4096 x i16] }
%struct.VVCDSPContext = type { %struct.VVCInterDSPContext, %struct.VVCIntraDSPContext, %struct.VVCItxDSPContext, %struct.VVCLMCSDSPContext, %struct.VVCLFDSPContext, %struct.VVCSAODSPContext, %struct.VVCALFDSPContext }
%struct.VVCInterDSPContext = type { [2 x [7 x [2 x [2 x ptr]]]], [2 x [7 x [2 x [2 x ptr]]]], [2 x [7 x [2 x [2 x ptr]]]], [2 x [7 x ptr]], [2 x [7 x ptr]], [2 x [7 x ptr]], ptr, ptr, ptr, ptr, ptr, ptr, ptr, ptr, ptr, ptr, ptr, [2 x [2 x ptr]] }
%struct.VVCIntraDSPContext = type { ptr, ptr, ptr, ptr, ptr, ptr, ptr, ptr, ptr, ptr }
%struct.VVCItxDSPContext = type { ptr, ptr, [3 x [6 x ptr]], ptr, ptr }
%struct.VVCLMCSDSPContext = type { ptr }
%struct.VVCLFDSPContext = type { [2 x ptr], [2 x ptr], [2 x ptr] }
%struct.VVCSAODSPContext = type { [9 x ptr], [9 x ptr], [2 x ptr] }
%struct.VVCALFDSPContext = type { [2 x ptr], ptr, ptr, ptr }
%struct.VideoDSPContext = type { ptr, ptr }
%struct.anon = type { ptr, ptr, ptr, ptr, [2 x ptr], [2 x ptr], [2 x ptr], [2 x ptr], [2 x ptr], [3 x ptr], ptr, ptr, [2 x ptr], ptr, ptr, [2 x ptr], ptr, ptr, ptr, [2 x ptr], ptr, [3 x ptr], ptr, [2 x ptr], [2 x ptr], [2 x ptr], [2 x [3 x ptr]], [2 x ptr], [2 x ptr], [3 x ptr], [3 x ptr], [3 x [2 x ptr]], [3 x [2 x ptr]], ptr, ptr, ptr, [3 x ptr], %struct.anon.0 }
%struct.anon.0 = type { i32, i32, i32, i32, i32, i32, i32, i32, i32, i32, i32, i32 }
%struct.VVCFrameThread = type { i32, ptr, ptr, i32, i32, i32, i32, i32, i32, [2 x i32], %union.pthread_mutex_t, %union.pthread_cond_t }
%union.pthread_mutex_t = type { %struct.__pthread_mutex_s }
%struct.__pthread_mutex_s = type { i32, i32, i32, i32, i32, i16, i16, %struct.__pthread_internal_list }
%struct.__pthread_internal_list = type { ptr, ptr }
%union.pthread_cond_t = type { %struct.__pthread_cond_s }
%struct.__pthread_cond_s = type { %union.__atomic_wide_counter, %union.__atomic_wide_counter, [2 x i32], [2 x i32], i32, i32, [2 x i32] }
%union.__atomic_wide_counter = type { i64 }

; Function Attrs: nounwind uwtable
define i32 @ff_vvc_frame_wait(ptr noundef %0, ptr noundef %1) #0 {
  %3 = alloca ptr, align 8
  %4 = alloca ptr, align 8
  %5 = alloca ptr, align 8
  %6 = alloca i32, align 4
  %7 = alloca i32, align 4
  store ptr %0, ptr %3, align 8, !tbaa !4
  store ptr %1, ptr %4, align 8, !tbaa !82
  call void @llvm.lifetime.start.p0(i64 8, ptr %5) #7
  %8 = load ptr, ptr %4, align 8, !tbaa !82
  %9 = getelementptr inbounds nuw %struct.VVCFrameContext, ptr %8, i32 0, i32 11
  %10 = load ptr, ptr %9, align 8, !tbaa !31
  store ptr %10, ptr %5, align 8, !tbaa !68
  %11 = load ptr, ptr %5, align 8, !tbaa !68
  %12 = getelementptr inbounds nuw %struct.VVCFrameThread, ptr %11, i32 0, i32 10
  %13 = call i32 @pthread_mutex_lock(ptr noundef %12) #7
  br label %14

14:                                               ; preds = %28, %2
  %15 = load ptr, ptr %5, align 8, !tbaa !68
  %16 = getelementptr inbounds nuw %struct.VVCFrameThread, ptr %15, i32 0, i32 7
  %17 = load atomic i32, ptr %16 seq_cst, align 8
  store i32 %17, ptr %6, align 4
  %18 = load i32, ptr %6, align 4, !tbaa !9
  %19 = icmp ne i32 %18, 0
  br i1 %19, label %26, label %20

20:                                               ; preds = %14
  %21 = load ptr, ptr %5, align 8, !tbaa !68
  %22 = getelementptr inbounds nuw %struct.VVCFrameThread, ptr %21, i32 0, i32 8
  %23 = load atomic i32, ptr %22 seq_cst, align 4
  store i32 %23, ptr %7, align 4
  %24 = load i32, ptr %7, align 4, !tbaa !9
  %25 = icmp ne i32 %24, 0
  br label %26

26:                                               ; preds = %20, %14
  %27 = phi i1 [ true, %14 ], [ %25, %20 ]
  br i1 %27, label %28, label %34

28:                                               ; preds = %26
  %29 = load ptr, ptr %5, align 8, !tbaa !68
  %30 = getelementptr inbounds nuw %struct.VVCFrameThread, ptr %29, i32 0, i32 11
  %31 = load ptr, ptr %5, align 8, !tbaa !68
  %32 = getelementptr inbounds nuw %struct.VVCFrameThread, ptr %31, i32 0, i32 10
  %33 = call i32 @pthread_cond_wait(ptr noundef %30, ptr noundef %32)
  br label %14, !llvm.loop !147

34:                                               ; preds = %26
  %35 = load ptr, ptr %5, align 8, !tbaa !68
  %36 = getelementptr inbounds nuw %struct.VVCFrameThread, ptr %35, i32 0, i32 10
  %37 = call i32 @pthread_mutex_unlock(ptr noundef %36) #7
  %38 = load ptr, ptr %4, align 8, !tbaa !82
  %39 = getelementptr inbounds nuw %struct.VVCFrameContext, ptr %38, i32 0, i32 8
  %40 = load ptr, ptr %39, align 8, !tbaa !148
  call void @ff_vvc_report_frame_finished(ptr noundef %40)
  br label %41

41:                                               ; preds = %34
  br label %42

42:                                               ; preds = %41
  br label %43

43:                                               ; preds = %42
  %44 = load ptr, ptr %5, align 8, !tbaa !68
  %45 = getelementptr inbounds nuw %struct.VVCFrameThread, ptr %44, i32 0, i32 0
  %46 = load atomic i32, ptr %45 seq_cst, align 4, !tbaa !104
  call void @llvm.lifetime.end.p0(i64 8, ptr %5) #7
  ret i32 %46
}