; Function Attrs: nounwind uwtable
define i32 @ff_vvc_frame_wait(ptr noundef readnone captures(none) %0, ptr noundef readonly captures(none) %1) local_unnamed_addr #0 {
  %3 = getelementptr inbounds nuw i8, ptr %1, i64 21288
  %4 = load ptr, ptr %3, align 8, !tbaa !23
  %5 = getelementptr inbounds nuw i8, ptr %4, i64 56
  %6 = tail call i32 @pthread_mutex_lock(ptr noundef nonnull %5) #7
  %7 = getelementptr inbounds nuw i8, ptr %4, i64 44
  %8 = getelementptr inbounds nuw i8, ptr %4, i64 40
  %9 = getelementptr inbounds nuw i8, ptr %4, i64 96
  br label %10

10:                                               ; preds = %.critedge, %2
  %11 = load atomic i32, ptr %8 seq_cst, align 8
  %.not = icmp eq i32 %11, 0
  br i1 %.not, label %12, label %.critedge

12:                                               ; preds = %10
  %13 = load atomic i32, ptr %7 seq_cst, align 4
  %.not10 = icmp eq i32 %13, 0
  br i1 %.not10, label %15, label %.critedge

.critedge:                                        ; preds = %10, %12
  %14 = tail call i32 @pthread_cond_wait(ptr noundef nonnull %9, ptr noundef nonnull %5) #7
  br label %10, !llvm.loop !139

15:                                               ; preds = %12
  %16 = tail call i32 @pthread_mutex_unlock(ptr noundef nonnull %5) #7
  %17 = getelementptr inbounds nuw i8, ptr %1, i64 18952
  %18 = load ptr, ptr %17, align 8, !tbaa !140
  tail call void @ff_vvc_report_frame_finished(ptr noundef %18) #7
  %19 = load atomic i32, ptr %4 seq_cst, align 4, !tbaa !105
  ret i32 %19
}